target datalayout = "e-m:e-p270:32:32-p271:32:32-p272:64:64-i64:64-i128:128-f80:128-n8:16:32:64-S128"
target triple = "x86_64-unknown-linux-gnu"

module asm ".section\09\22.initcall5.init\22, \22a\22\09\09"
module asm "__initcall__kmod_proc__403_64_proc_devices_init5:\09\09\09"
module asm ".long\09proc_devices_init - .\09"
module asm ".previous\09\09\09\09\09"

%struct.seq_operations = type { ptr, ptr, ptr, ptr }

@__UNIQUE_ID___addressable_proc_devices_init404 = internal global ptr @proc_devices_init, section ".discard.addressable", align 8
@.str = private unnamed_addr constant [8 x i8] c"devices\00", align 1
@devinfo_ops = internal constant %struct.seq_operations { ptr @devinfo_start, ptr @devinfo_stop, ptr @devinfo_next, ptr @devinfo_show }, align 8
@.str.1 = private unnamed_addr constant [20 x i8] c"Character devices:\0A\00", align 1
@.str.2 = private unnamed_addr constant [17 x i8] c"\0ABlock devices:\0A\00", align 1
@llvm.compiler.used = appending global [1 x ptr] [ptr @__UNIQUE_ID___addressable_proc_devices_init404], section "llvm.metadata"

; Function Attrs: cold fn_ret_thunk_extern nounwind null_pointer_is_valid optsize
define internal noundef i32 @proc_devices_init() #0 section ".init.text" align 16 {
  %1 = tail call ptr @proc_create_seq_private(ptr noundef nonnull @.str, i16 noundef zeroext 0, ptr noundef null, ptr noundef nonnull @devinfo_ops, i32 noundef 0, ptr noundef null) #6
  %2 = getelementptr inbounds i8, ptr %1, i64 170
  %3 = load i8, ptr %2, align 2
  %4 = or i8 %3, 1
  store i8 %4, ptr %2, align 2
  ret i32 0
}

; Function Attrs: null_pointer_is_valid
declare dso_local ptr @proc_create_seq_private(ptr noundef, i16 noundef zeroext, ptr noundef, ptr noundef, i32 noundef, ptr noundef) local_unnamed_addr #1

; Function Attrs: fn_ret_thunk_extern mustprogress nofree norecurse nosync nounwind null_pointer_is_valid willreturn memory(argmem: read)
define internal ptr @devinfo_start(ptr nocapture readnone %0, ptr noundef readonly %1) #2 align 16 {
  %3 = load i64, ptr %1, align 8
  %4 = icmp slt i64 %3, 1024
  %5 = select i1 %4, ptr %1, ptr null
  ret ptr %5
}

; Function Attrs: fn_ret_thunk_extern mustprogress nofree norecurse nosync nounwind null_pointer_is_valid willreturn memory(none)
define internal void @devinfo_stop(ptr nocapture readnone %0, ptr nocapture readnone %1) #3 align 16 {
  ret void
}

; Function Attrs: fn_ret_thunk_extern mustprogress nofree norecurse nosync nounwind null_pointer_is_valid willreturn memory(argmem: readwrite)
define internal ptr @devinfo_next(ptr nocapture readnone %0, ptr nocapture readnone %1, ptr noundef %2) #4 align 16 {
  %4 = load i64, ptr %2, align 8
  %5 = add i64 %4, 1
  store i64 %5, ptr %2, align 8
  %6 = icmp sgt i64 %5, 1023
  %7 = select i1 %6, ptr null, ptr %2
  ret ptr %7
}

; Function Attrs: fn_ret_thunk_extern nounwind null_pointer_is_valid
define internal noundef i32 @devinfo_show(ptr noundef %0, ptr nocapture noundef readonly %1) #5 align 16 {
  %3 = load i64, ptr %1, align 8
  %4 = trunc i64 %3 to i32
  %5 = icmp slt i32 %4, 512
  br i1 %5, label %6, label %12

6:                                                ; preds = %2
  %7 = icmp eq i32 %4, 0
  br i1 %7, label %8, label %9

8:                                                ; preds = %6
  tail call void @seq_puts(ptr noundef %0, ptr noundef nonnull @.str.1) #6
  br label %9

9:                                                ; preds = %8, %6
  %10 = shl i64 %3, 32
  %11 = ashr exact i64 %10, 32
  tail call void @chrdev_show(ptr noundef %0, i64 noundef %11) #6
  br label %18

12:                                               ; preds = %2
  %13 = add nsw i32 %4, -512
  %14 = icmp eq i32 %13, 0
  br i1 %14, label %15, label %16

15:                                               ; preds = %12
  tail call void @seq_puts(ptr noundef %0, ptr noundef nonnull @.str.2) #6
  br label %16

16:                                               ; preds = %15, %12
  %17 = zext nneg i32 %13 to i64
  tail call void @blkdev_show(ptr noundef %0, i64 noundef %17) #6
  br label %18

18:                                               ; preds = %16, %9
  ret i32 0
}

; Function Attrs: null_pointer_is_valid
declare dso_local void @seq_puts(ptr noundef, ptr noundef) local_unnamed_addr #1

; Function Attrs: null_pointer_is_valid
declare dso_local void @chrdev_show(ptr noundef, i64 noundef) local_unnamed_addr #1

; Function Attrs: null_pointer_is_valid
declare dso_local void @blkdev_show(ptr noundef, i64 noundef) local_unnamed_addr #1


!llvm.module.flags = !{!0, !1, !2, !3, !4}

!0 = !{i32 1, !"wchar_size", i32 2}
!1 = !{i32 8, !"cf-protection-branch", i32 1}
!2 = !{i32 4, !"function_return_thunk_extern", i32 1}
!3 = !{i32 4, !"indirect_branch_cs_prefix", i32 1}
!4 = !{i32 4, !"SkipRaxSetup", i32 1}
